target datalayout = "e-m:e-p270:32:32-p271:32:32-p272:64:64-i64:64-i128:128-f80:128-n8:16:32:64-S128"
target triple = "x86_64-unknown-linux-gnu"

@_ZN6v8impl7RefBaseC1EP10napi_env__jNS_9OwnershipEPFvS2_PvS4_ES4_S4_ = dso_local unnamed_addr alias void (ptr, ptr, i32, i32, ptr, ptr, ptr), ptr @_ZN6v8impl7RefBaseC2EP10napi_env__jNS_9OwnershipEPFvS2_PvS4_ES4_S4_

; Function Attrs: mustprogress nounwind uwtable
define dso_local noundef ptr @_ZN6v8impl7RefBase3NewEP10napi_env__jNS_9OwnershipEPFvS2_PvS4_ES4_S4_(ptr noundef %env, i32 noundef %initial_refcount, i32 noundef %ownership, ptr noundef %finalize_callback, ptr noundef %finalize_data, ptr noundef %finalize_hint) #4 align 2 {
entry:
  %env.addr = alloca ptr, align 8
  %initial_refcount.addr = alloca i32, align 4
  %ownership.addr = alloca i32, align 4
  %finalize_callback.addr = alloca ptr, align 8
  %finalize_data.addr = alloca ptr, align 8
  %finalize_hint.addr = alloca ptr, align 8
  store ptr %env, ptr %env.addr, align 8
  store i32 %initial_refcount, ptr %initial_refcount.addr, align 4
  store i32 %ownership, ptr %ownership.addr, align 4
  store ptr %finalize_callback, ptr %finalize_callback.addr, align 8
  store ptr %finalize_data, ptr %finalize_data.addr, align 8
  store ptr %finalize_hint, ptr %finalize_hint.addr, align 8
  %call = call noalias noundef nonnull ptr @_Znwm(i64 noundef 72) #14
  %0 = load ptr, ptr %env.addr, align 8
  %1 = load i32, ptr %initial_refcount.addr, align 4
  %2 = load i32, ptr %ownership.addr, align 4
  %3 = load ptr, ptr %finalize_callback.addr, align 8
  %4 = load ptr, ptr %finalize_data.addr, align 8
  %5 = load ptr, ptr %finalize_hint.addr, align 8
  call void @_ZN6v8impl7RefBaseC1EP10napi_env__jNS_9OwnershipEPFvS2_PvS4_ES4_S4_(ptr noundef nonnull align 8 dereferenceable(72) %call, ptr noundef %0, i32 noundef %1, i32 noundef %2, ptr noundef %3, ptr noundef %4, ptr noundef %5)
  ret ptr %call
}