; Function Attrs: mustprogress nounwind uwtable
define dso_local noundef nonnull ptr @_ZN6v8impl7RefBase3NewEP10napi_env__jNS_9OwnershipEPFvS2_PvS4_ES4_S4_(ptr noundef %env, i32 noundef %initial_refcount, i32 noundef %ownership, ptr noundef %finalize_callback, ptr noundef %finalize_data, ptr noundef %finalize_hint) local_unnamed_addr #3 align 2 {
entry:
  %call = tail call noalias noundef nonnull dereferenceable(72) ptr @_Znwm(i64 noundef 72) #25
  %env_.i.i.i = getelementptr inbounds i8, ptr %call, i64 8
  store ptr %env, ptr %env_.i.i.i, align 8
  %finalize_callback_.i.i.i = getelementptr inbounds i8, ptr %call, i64 16
  store ptr %finalize_callback, ptr %finalize_callback_.i.i.i, align 8
  %finalize_data_.i.i.i = getelementptr inbounds i8, ptr %call, i64 24
  store ptr %finalize_data, ptr %finalize_data_.i.i.i, align 8
  %finalize_hint_.i.i.i = getelementptr inbounds i8, ptr %call, i64 32
  store ptr %finalize_hint, ptr %finalize_hint_.i.i.i, align 8
  %0 = getelementptr inbounds i8, ptr %call, i64 40
  %next_.i.i.i = getelementptr inbounds i8, ptr %call, i64 48
  %cmp.i.i = icmp eq ptr %finalize_callback, null
  %cond.v.i.i = select i1 %cmp.i.i, i64 32, i64 56
  %cond.i.i = getelementptr inbounds i8, ptr %env, i64 %cond.v.i.i
  %prev_.i.i.i = getelementptr inbounds i8, ptr %call, i64 56
  store ptr %cond.i.i, ptr %prev_.i.i.i, align 8
  %next_.i4.i.i = getelementptr inbounds i8, ptr %cond.i.i, i64 8
  %1 = load ptr, ptr %next_.i4.i.i, align 8
  store ptr %1, ptr %next_.i.i.i, align 8
  %cmp.not.i.i.i = icmp eq ptr %1, null
  br i1 %cmp.not.i.i.i, label %_ZN6v8impl7RefBaseC2EP10napi_env__jNS_9OwnershipEPFvS2_PvS4_ES4_S4_.exit, label %if.then.i.i.i

if.then.i.i.i:                                    ; preds = %entry
  %prev_5.i.i.i = getelementptr inbounds i8, ptr %1, i64 16
  store ptr %0, ptr %prev_5.i.i.i, align 8
  br label %_ZN6v8impl7RefBaseC2EP10napi_env__jNS_9OwnershipEPFvS2_PvS4_ES4_S4_.exit

_ZN6v8impl7RefBaseC2EP10napi_env__jNS_9OwnershipEPFvS2_PvS4_ES4_S4_.exit: ; preds = %entry, %if.then.i.i.i
  store ptr %0, ptr %next_.i4.i.i, align 8
  store ptr getelementptr inbounds ({ [5 x ptr], [5 x ptr] }, ptr @_ZTVN6v8impl7RefBaseE, i64 0, i32 0, i64 2), ptr %call, align 8
  store ptr getelementptr inbounds ({ [5 x ptr], [5 x ptr] }, ptr @_ZTVN6v8impl7RefBaseE, i64 0, i32 1, i64 2), ptr %0, align 8
  %refcount_.i = getelementptr inbounds i8, ptr %call, i64 64
  store i32 %initial_refcount, ptr %refcount_.i, align 8
  %ownership_.i = getelementptr inbounds i8, ptr %call, i64 68
  store i32 %ownership, ptr %ownership_.i, align 4
  ret ptr %call
}